target datalayout = "e-m:e-p270:32:32-p271:32:32-p272:64:64-i64:64-i128:128-f80:128-n8:16:32:64-S128"
target triple = "x86_64-pc-linux-gnu"

%struct.SDL_HIDAPI_Device = type { ptr, ptr, ptr, ptr, i16, i16, i16, ptr, %struct.SDL_GUID, i32, i32, i32, i32, i16, i16, i8, i32, i32, i32, ptr, ptr, ptr, ptr, %struct.SDL_AtomicInt, i32, ptr, i8, i8, i8, ptr, i32, ptr, ptr }
%struct.SDL_GUID = type { [16 x i8] }
%struct.SDL_AtomicInt = type { i32 }
%struct.SDL_DriverPS5_Context = type { ptr, ptr, i8, i8, i8, i8, i8, i8, i8, i8, i32, i8, i8, i8, i8, i8, i8, i8, [6 x %struct.IMUCalibrationData], i16, i64, i32, i8, i8, i8, i8, i8, i8, i8, i32, i64, i32, %union.anon }
%struct.IMUCalibrationData = type { i16, float }
%union.anon = type { [64 x i8] }

; Function Attrs: nounwind uwtable
define internal void @HIDAPI_DriverPS5_SetEnhancedModeAvailable(ptr noundef %0) #0 {
  %2 = alloca ptr, align 8
  store ptr %0, ptr %2, align 8
  %3 = load ptr, ptr %2, align 8
  %4 = getelementptr inbounds nuw %struct.SDL_DriverPS5_Context, ptr %3, i32 0, i32 13
  %5 = load i8, ptr %4, align 2, !range !5, !noundef !6
  %6 = trunc i8 %5 to i1
  br i1 %6, label %7, label %8

7:                                                ; preds = %1
  br label %54

8:                                                ; preds = %1
  %9 = load ptr, ptr %2, align 8
  %10 = getelementptr inbounds nuw %struct.SDL_DriverPS5_Context, ptr %9, i32 0, i32 13
  store i8 1, ptr %10, align 2
  %11 = load ptr, ptr %2, align 8
  %12 = getelementptr inbounds nuw %struct.SDL_DriverPS5_Context, ptr %11, i32 0, i32 8
  %13 = load i8, ptr %12, align 2, !range !5, !noundef !6
  %14 = trunc i8 %13 to i1
  br i1 %14, label %15, label %21

15:                                               ; preds = %8
  %16 = load ptr, ptr %2, align 8
  %17 = getelementptr inbounds nuw %struct.SDL_DriverPS5_Context, ptr %16, i32 0, i32 1
  %18 = load ptr, ptr %17, align 8
  call void @SDL_PrivateJoystickAddTouchpad(ptr noundef %18, i32 noundef 2)
  %19 = load ptr, ptr %2, align 8
  %20 = getelementptr inbounds nuw %struct.SDL_DriverPS5_Context, ptr %19, i32 0, i32 15
  store i8 1, ptr %20, align 8
  br label %21

21:                                               ; preds = %15, %8
  %22 = load ptr, ptr %2, align 8
  %23 = getelementptr inbounds nuw %struct.SDL_DriverPS5_Context, ptr %22, i32 0, i32 4
  %24 = load i8, ptr %23, align 2, !range !5, !noundef !6
  %25 = trunc i8 %24 to i1
  br i1 %25, label %26, label %48

26:                                               ; preds = %21
  %27 = load ptr, ptr %2, align 8
  %28 = getelementptr inbounds nuw %struct.SDL_DriverPS5_Context, ptr %27, i32 0, i32 0
  %29 = load ptr, ptr %28, align 8
  %30 = getelementptr inbounds nuw %struct.SDL_HIDAPI_Device, ptr %29, i32 0, i32 15
  %31 = load i8, ptr %30, align 4, !range !5, !noundef !6
  %32 = trunc i8 %31 to i1
  br i1 %32, label %33, label %40

33:                                               ; preds = %26
  %34 = load ptr, ptr %2, align 8
  %35 = getelementptr inbounds nuw %struct.SDL_DriverPS5_Context, ptr %34, i32 0, i32 1
  %36 = load ptr, ptr %35, align 8
  call void @SDL_PrivateJoystickAddSensor(ptr noundef %36, i32 noundef 2, float noundef 1.000000e+03)
  %37 = load ptr, ptr %2, align 8
  %38 = getelementptr inbounds nuw %struct.SDL_DriverPS5_Context, ptr %37, i32 0, i32 1
  %39 = load ptr, ptr %38, align 8
  call void @SDL_PrivateJoystickAddSensor(ptr noundef %39, i32 noundef 1, float noundef 1.000000e+03)
  br label %47

40:                                               ; preds = %26
  %41 = load ptr, ptr %2, align 8
  %42 = getelementptr inbounds nuw %struct.SDL_DriverPS5_Context, ptr %41, i32 0, i32 1
  %43 = load ptr, ptr %42, align 8
  call void @SDL_PrivateJoystickAddSensor(ptr noundef %43, i32 noundef 2, float noundef 2.500000e+02)
  %44 = load ptr, ptr %2, align 8
  %45 = getelementptr inbounds nuw %struct.SDL_DriverPS5_Context, ptr %44, i32 0, i32 1
  %46 = load ptr, ptr %45, align 8
  call void @SDL_PrivateJoystickAddSensor(ptr noundef %46, i32 noundef 1, float noundef 2.500000e+02)
  br label %47

47:                                               ; preds = %40, %33
  br label %48

48:                                               ; preds = %47, %21
  %49 = load ptr, ptr %2, align 8
  %50 = getelementptr inbounds nuw %struct.SDL_DriverPS5_Context, ptr %49, i32 0, i32 16
  store i8 1, ptr %50, align 1
  %51 = load ptr, ptr %2, align 8
  %52 = getelementptr inbounds nuw %struct.SDL_DriverPS5_Context, ptr %51, i32 0, i32 0
  %53 = load ptr, ptr %52, align 8
  call void @HIDAPI_UpdateDeviceProperties(ptr noundef %53)
  br label %54

54:                                               ; preds = %48, %7
  ret void
}

; Function Attrs: nounwind uwtable
define internal void @HIDAPI_DriverPS5_SetEnhancedMode(ptr noundef %0) #0 {
  %2 = alloca ptr, align 8
  store ptr %0, ptr %2, align 8
  %3 = load ptr, ptr %2, align 8
  call void @HIDAPI_DriverPS5_SetEnhancedModeAvailable(ptr noundef %3)
  %4 = load ptr, ptr %2, align 8
  %5 = getelementptr inbounds nuw %struct.SDL_DriverPS5_Context, ptr %4, i32 0, i32 12
  %6 = load i8, ptr %5, align 1, !range !5, !noundef !6
  %7 = trunc i8 %6 to i1
  br i1 %7, label %15, label %8

8:                                                ; preds = %1
  %9 = load ptr, ptr %2, align 8
  %10 = getelementptr inbounds nuw %struct.SDL_DriverPS5_Context, ptr %9, i32 0, i32 12
  store i8 1, ptr %10, align 1
  %11 = load ptr, ptr %2, align 8
  %12 = call zeroext i1 @HIDAPI_DriverPS5_UpdateEffects(ptr noundef %11, i32 noundef 0, i1 noundef zeroext false)
  %13 = load ptr, ptr %2, align 8
  %14 = call zeroext i1 @HIDAPI_DriverPS5_UpdateEffects(ptr noundef %13, i32 noundef 24, i1 noundef zeroext false)
  br label %15

15:                                               ; preds = %8, %1
  ret void
}

; Function Attrs: nounwind uwtable
define internal void @HIDAPI_DriverPS5_SetEnhancedReportHint(ptr noundef %0, i32 noundef %1) #0 {
  %3 = alloca ptr, align 8
  %4 = alloca i32, align 4
  store ptr %0, ptr %3, align 8
  store i32 %1, ptr %4, align 4
  %5 = load i32, ptr %4, align 4
  switch i32 %5, label %10 [
    i32 0, label %10
    i32 1, label %6
    i32 2, label %8
  ]

6:                                                ; preds = %2
  %7 = load ptr, ptr %3, align 8
  call void @HIDAPI_DriverPS5_SetEnhancedMode(ptr noundef %7)
  br label %10

8:                                                ; preds = %2
  %9 = load ptr, ptr %3, align 8
  call void @HIDAPI_DriverPS5_SetEnhancedModeAvailable(ptr noundef %9)
  br label %10

10:                                               ; preds = %2, %8, %6, %2
  %11 = load i32, ptr %4, align 4
  %12 = load ptr, ptr %3, align 8
  %13 = getelementptr inbounds nuw %struct.SDL_DriverPS5_Context, ptr %12, i32 0, i32 10
  store i32 %11, ptr %13, align 8
  ret void
}