; Function Attrs: nounwind uwtable
define internal fastcc void @HIDAPI_DriverPS5_SetEnhancedReportHint(ptr noundef captures(none) %0, i32 noundef range(i32 0, 3) %1) unnamed_addr #0 {
  %3 = alloca %struct.DS5EffectsState_t, align 1
  switch i32 %1, label %HIDAPI_DriverPS5_SetEnhancedMode.exit [
    i32 2, label %62
    i32 1, label %4
  ]

4:                                                ; preds = %2
  %5 = getelementptr inbounds nuw i8, ptr %0, i64 30
  %6 = load i8, ptr %5, align 2, !range !5, !noundef !6
  %7 = trunc nuw i8 %6 to i1
  br i1 %7, label %HIDAPI_DriverPS5_SetEnhancedModeAvailable.exit6, label %8

8:                                                ; preds = %4
  store i8 1, ptr %5, align 2
  %9 = getelementptr inbounds nuw i8, ptr %0, i64 22
  %10 = load i8, ptr %9, align 2, !range !5, !noundef !6
  %11 = trunc nuw i8 %10 to i1
  br i1 %11, label %12, label %16

12:                                               ; preds = %8
  %13 = getelementptr inbounds nuw i8, ptr %0, i64 8
  %14 = load ptr, ptr %13, align 8
  tail call void @SDL_PrivateJoystickAddTouchpad(ptr noundef %14, i32 noundef 2) #9
  %15 = getelementptr inbounds nuw i8, ptr %0, i64 32
  store i8 1, ptr %15, align 8
  br label %16

16:                                               ; preds = %12, %8
  %17 = getelementptr inbounds nuw i8, ptr %0, i64 18
  %18 = load i8, ptr %17, align 2, !range !5, !noundef !6
  %19 = trunc nuw i8 %18 to i1
  br i1 %19, label %.sink.split.i4, label %27

.sink.split.i4:                                   ; preds = %16
  %20 = load ptr, ptr %0, align 8
  %21 = getelementptr inbounds nuw i8, ptr %20, i64 84
  %22 = load i8, ptr %21, align 4, !range !5, !noundef !6
  %23 = trunc nuw i8 %22 to i1
  %24 = getelementptr inbounds nuw i8, ptr %0, i64 8
  %25 = load ptr, ptr %24, align 8
  %..i5 = select i1 %23, float 1.000000e+03, float 2.500000e+02
  tail call void @SDL_PrivateJoystickAddSensor(ptr noundef %25, i32 noundef 2, float noundef %..i5) #9
  %26 = load ptr, ptr %24, align 8
  tail call void @SDL_PrivateJoystickAddSensor(ptr noundef %26, i32 noundef 1, float noundef %..i5) #9
  br label %27

27:                                               ; preds = %.sink.split.i4, %16
  %28 = getelementptr inbounds nuw i8, ptr %0, i64 33
  store i8 1, ptr %28, align 1
  %29 = load ptr, ptr %0, align 8
  tail call void @HIDAPI_UpdateDeviceProperties(ptr noundef %29) #9
  br label %HIDAPI_DriverPS5_SetEnhancedModeAvailable.exit6

HIDAPI_DriverPS5_SetEnhancedModeAvailable.exit6:  ; preds = %4, %27
  %30 = getelementptr inbounds nuw i8, ptr %0, i64 29
  %31 = load i8, ptr %30, align 1, !range !5, !noundef !6
  %32 = trunc nuw i8 %31 to i1
  br i1 %32, label %HIDAPI_DriverPS5_SetEnhancedMode.exit, label %33

33:                                               ; preds = %HIDAPI_DriverPS5_SetEnhancedModeAvailable.exit6
  store i8 1, ptr %30, align 1
  call void @llvm.lifetime.start.p0(i64 47, ptr nonnull %3) #9
  call void @llvm.memset.p0.i64(ptr noundef nonnull align 1 dereferenceable(47) %3, i8 0, i64 47, i1 false)
  %34 = getelementptr inbounds nuw i8, ptr %0, i64 20
  %35 = load i8, ptr %34, align 4, !range !5, !noundef !6
  %36 = trunc nuw i8 %35 to i1
  br i1 %36, label %37, label %HIDAPI_DriverPS5_UpdateEffects.exit

37:                                               ; preds = %33
  %38 = getelementptr inbounds nuw i8, ptr %0, i64 101
  %39 = load i8, ptr %38, align 1
  %.not31.i = icmp eq i8 %39, 0
  br i1 %.not31.i, label %40, label %43

40:                                               ; preds = %37
  %41 = getelementptr inbounds nuw i8, ptr %0, i64 102
  %42 = load i8, ptr %41, align 2
  %.not32.i = icmp eq i8 %42, 0
  br i1 %.not32.i, label %HIDAPI_DriverPS5_UpdateEffects.exit, label %43

43:                                               ; preds = %40, %37
  %44 = getelementptr inbounds nuw i8, ptr %0, i64 84
  %45 = load i16, ptr %44, align 4
  %46 = icmp ult i16 %45, 548
  br i1 %46, label %47, label %52

47:                                               ; preds = %43
  %48 = lshr i8 %39, 1
  %49 = getelementptr inbounds nuw i8, ptr %0, i64 102
  %50 = load i8, ptr %49, align 2
  %51 = lshr i8 %50, 1
  br label %56

52:                                               ; preds = %43
  %53 = getelementptr inbounds nuw i8, ptr %3, i64 38
  store i8 4, ptr %53, align 1
  %54 = getelementptr inbounds nuw i8, ptr %0, i64 102
  %55 = load i8, ptr %54, align 2
  br label %56

56:                                               ; preds = %52, %47
  %57 = phi i8 [ 3, %47 ], [ 2, %52 ]
  %.sink40.i = phi i8 [ %48, %47 ], [ %39, %52 ]
  %.sink.i = phi i8 [ %51, %47 ], [ %55, %52 ]
  %58 = getelementptr inbounds nuw i8, ptr %3, i64 3
  store i8 %.sink40.i, ptr %58, align 1
  %59 = getelementptr inbounds nuw i8, ptr %3, i64 2
  store i8 %.sink.i, ptr %59, align 1
  store i8 %57, ptr %3, align 1
  br label %HIDAPI_DriverPS5_UpdateEffects.exit

HIDAPI_DriverPS5_UpdateEffects.exit:              ; preds = %33, %56, %40
  %60 = call fastcc zeroext i1 @HIDAPI_DriverPS5_InternalSendJoystickEffect(ptr noundef nonnull %0, ptr noundef nonnull %3, i32 noundef 47, i1 noundef zeroext false) #11
  call void @llvm.lifetime.end.p0(i64 47, ptr nonnull %3) #9
  %61 = tail call fastcc zeroext i1 @HIDAPI_DriverPS5_UpdateEffects(ptr noundef nonnull %0, i32 noundef 24, i1 noundef zeroext false)
  br label %HIDAPI_DriverPS5_SetEnhancedMode.exit

62:                                               ; preds = %2
  %63 = getelementptr inbounds nuw i8, ptr %0, i64 30
  %64 = load i8, ptr %63, align 2, !range !5, !noundef !6
  %65 = trunc nuw i8 %64 to i1
  br i1 %65, label %HIDAPI_DriverPS5_SetEnhancedMode.exit, label %66

66:                                               ; preds = %62
  store i8 1, ptr %63, align 2
  %67 = getelementptr inbounds nuw i8, ptr %0, i64 22
  %68 = load i8, ptr %67, align 2, !range !5, !noundef !6
  %69 = trunc nuw i8 %68 to i1
  br i1 %69, label %70, label %74

70:                                               ; preds = %66
  %71 = getelementptr inbounds nuw i8, ptr %0, i64 8
  %72 = load ptr, ptr %71, align 8
  tail call void @SDL_PrivateJoystickAddTouchpad(ptr noundef %72, i32 noundef 2) #9
  %73 = getelementptr inbounds nuw i8, ptr %0, i64 32
  store i8 1, ptr %73, align 8
  br label %74

74:                                               ; preds = %70, %66
  %75 = getelementptr inbounds nuw i8, ptr %0, i64 18
  %76 = load i8, ptr %75, align 2, !range !5, !noundef !6
  %77 = trunc nuw i8 %76 to i1
  br i1 %77, label %.sink.split.i, label %85

.sink.split.i:                                    ; preds = %74
  %78 = load ptr, ptr %0, align 8
  %79 = getelementptr inbounds nuw i8, ptr %78, i64 84
  %80 = load i8, ptr %79, align 4, !range !5, !noundef !6
  %81 = trunc nuw i8 %80 to i1
  %82 = getelementptr inbounds nuw i8, ptr %0, i64 8
  %83 = load ptr, ptr %82, align 8
  %..i = select i1 %81, float 1.000000e+03, float 2.500000e+02
  tail call void @SDL_PrivateJoystickAddSensor(ptr noundef %83, i32 noundef 2, float noundef %..i) #9
  %84 = load ptr, ptr %82, align 8
  tail call void @SDL_PrivateJoystickAddSensor(ptr noundef %84, i32 noundef 1, float noundef %..i) #9
  br label %85

85:                                               ; preds = %.sink.split.i, %74
  %86 = getelementptr inbounds nuw i8, ptr %0, i64 33
  store i8 1, ptr %86, align 1
  %87 = load ptr, ptr %0, align 8
  tail call void @HIDAPI_UpdateDeviceProperties(ptr noundef %87) #9
  br label %HIDAPI_DriverPS5_SetEnhancedMode.exit

HIDAPI_DriverPS5_SetEnhancedMode.exit:            ; preds = %85, %62, %HIDAPI_DriverPS5_UpdateEffects.exit, %HIDAPI_DriverPS5_SetEnhancedModeAvailable.exit6, %2
  %88 = getelementptr inbounds nuw i8, ptr %0, i64 24
  store i32 %1, ptr %88, align 8
  ret void
}